target datalayout = "e-m:e-p270:32:32-p271:32:32-p272:64:64-i64:64-i128:128-f80:128-n8:16:32:64-S128"
target triple = "x86_64-pc-linux-gnu"

%struct._GSList = type { ptr, ptr }

@stderr = external global ptr, align 8
@.str.75 = private unnamed_addr constant [73 x i8] c"The available output compression type(s) for the \22--compress\22 flag are:\0A\00", align 1
@.str.76 = private unnamed_addr constant [7 x i8] c"   %s\0A\00", align 1

; Function Attrs: null_pointer_is_valid sspstrong uwtable
define internal void @list_output_compression_types() #0 {
  %1 = alloca ptr, align 8
  %2 = alloca ptr, align 8
  call void @llvm.lifetime.start.p0(i64 8, ptr %1) #14
  call void (ptr, ...) @cmdarg_err(ptr noundef @.str.75)
  %3 = call ptr @wtap_get_all_output_compression_type_names_list()
  store ptr %3, ptr %1, align 8
  call void @llvm.lifetime.start.p0(i64 8, ptr %2) #14
  %4 = load ptr, ptr %1, align 8
  store ptr %4, ptr %2, align 8
  br label %5

5:                                                ; preds = %23, %0
  %6 = load ptr, ptr %2, align 8
  %7 = icmp ne ptr %6, null
  br i1 %7, label %9, label %8

8:                                                ; preds = %5
  call void @llvm.lifetime.end.p0(i64 8, ptr %2) #14
  br label %25

9:                                                ; preds = %5
  %10 = load ptr, ptr @stderr, align 8
  %11 = load ptr, ptr %2, align 8
  %12 = getelementptr inbounds nuw %struct._GSList, ptr %11, i32 0, i32 0
  %13 = load ptr, ptr %12, align 8
  %14 = call i32 (ptr, i32, ptr, ...) @__fprintf_chk(ptr noundef %10, i32 noundef 2, ptr noundef @.str.76, ptr noundef %13)
  br label %15

15:                                               ; preds = %9
  %16 = load ptr, ptr %2, align 8
  %17 = icmp ne ptr %16, null
  br i1 %17, label %18, label %22

18:                                               ; preds = %15
  %19 = load ptr, ptr %2, align 8
  %20 = getelementptr inbounds nuw %struct._GSList, ptr %19, i32 0, i32 1
  %21 = load ptr, ptr %20, align 8
  br label %23

22:                                               ; preds = %15
  br label %23

23:                                               ; preds = %22, %18
  %24 = phi ptr [ %21, %18 ], [ null, %22 ]
  store ptr %24, ptr %2, align 8
  br label %5, !llvm.loop !13

25:                                               ; preds = %8
  %26 = load ptr, ptr %1, align 8
  call void @g_slist_free(ptr noundef %26)
  call void @llvm.lifetime.end.p0(i64 8, ptr %1) #14
  ret void
}