; Function Attrs: null_pointer_is_valid sspstrong uwtable
define internal fastcc void @list_output_compression_types() unnamed_addr #0 {
  tail call void (ptr, ...) @cmdarg_err(ptr noundef nonnull @.str.75)
  %1 = tail call ptr @wtap_get_all_output_compression_type_names_list()
  %.not6 = icmp eq ptr %1, null
  br i1 %.not6, label %._crit_edge, label %.lr.ph

._crit_edge:                                      ; preds = %.lr.ph, %0
  tail call void @g_slist_free(ptr noundef %1)
  ret void

.lr.ph:                                           ; preds = %0, %.lr.ph
  %.07 = phi ptr [ %6, %.lr.ph ], [ %1, %0 ]
  %2 = load ptr, ptr @stderr, align 8
  %3 = load ptr, ptr %.07, align 8
  %4 = tail call i32 (ptr, i32, ptr, ...) @__fprintf_chk(ptr noundef %2, i32 noundef 2, ptr noundef nonnull @.str.76, ptr noundef %3)
  %5 = getelementptr inbounds nuw i8, ptr %.07, i64 8
  %6 = load ptr, ptr %5, align 8
  %.not = icmp eq ptr %6, null
  br i1 %.not, label %._crit_edge, label %.lr.ph, !llvm.loop !7
}